(lp0
(S'cppflags'
p1
ccopy_reg
_reconstructor
p2
(cino.utils
SpaceList
p3
c__builtin__
list
p4
(lp5
S'-mmcu=atmega328p'
p6
aS'-DF_CPU=8000000L'
p7
aS'-DARDUINO=105'
p8
aS'-I/usr/share/arduino/hardware/arduino/cores/arduino'
p9
aS'-ffunction-sections'
p10
aS'-fdata-sections'
p11
aS'-g'
p12
aS'-Os'
p13
aS'-w'
p14
aS'-I/usr/share/arduino/hardware/arduino/variants/standard'
p15
aS'-I/usr/share/arduino/libraries/SleepyPi2'
p16
aS'-I/usr/share/arduino/libraries/Low-Power'
p17
aS'-I/usr/share/arduino/libraries/Low-Power/Examples'
p18
aS'-I/usr/share/arduino/libraries/Low-Power/Examples/powerDownWakePeriodic'
p19
aS'-I/usr/share/arduino/libraries/Low-Power/Examples/standbyExternalInterruptSAMD21'
p20
aS'-I/usr/share/arduino/libraries/Low-Power/Examples/idleWakePeriodic'
p21
aS'-I/usr/share/arduino/libraries/Low-Power/Examples/powerDownWakeExternalInterrupt'
p22
aS'-I/usr/share/arduino/libraries/Time'
p23
aS'-I/usr/share/arduino/libraries/PCF8523'
p24
aS'-I/usr/share/arduino/libraries/PCF8523/Examples'
p25
aS'-I/usr/share/arduino/libraries/PCF8523/Examples/PCF8523_RAW'
p26
aS'-I/usr/share/arduino/libraries/Wire'
p27
aS'-I/usr/share/arduino/libraries/Wire/utility'
p28
aS'-I/usr/share/arduino/hardware/arduino/cores/arduino'
p29
aS'-I/usr/share/arduino/hardware/arduino/cores/arduino/avr-libc'
p30
atp31
Rp32
tp33
a(S'cxx'
p34
S'/usr/share/arduino/hardware/tools/avr/bin/avr-g++'
p35
tp36
a(S'arduino_libraries_dir'
p37
S'/usr/share/arduino/libraries'
p38
tp39
a(S'avrdude'
p40
S'/usr/share/arduino/hardware/tools/avrdude'
p41
tp42
a(S'ar'
p43
S'/usr/share/arduino/hardware/tools/avr/bin/avr-ar'
p44
tp45
a(S'names'
p46
(dp47
S'cpp'
p48
S'%s.cpp'
p49
sS'obj'
p50
S'%s.o'
p51
sS'lib'
p52
S'lib%s.a'
p53
sS'deps'
p54
S'%s.d'
p55
stp56
a(S'ldflags'
p57
g2
(g3
g4
(lp58
g6
aS'-Wl,-Os'
p59
aS'-Wl,--gc-sections'
p60
atp61
Rp62
tp63
a(S'arduino_lib_version'
p64
g2
(cino.environment
Version
p65
c__builtin__
tuple
p66
(I1
I0
I5
tp67
tp68
Rp69
tp70
a(S'objcopy'
p71
S'/usr/share/arduino/hardware/tools/avr/bin/avr-objcopy'
p72
tp73
a(S'board_models'
p74
cino.environment
BoardModels
p75
((lp76
(lp77
S'uno'
p78
a(dp79
S'build'
p80
(dp81
S'core'
p82
S'arduino'
p83
sS'mcu'
p84
S'atmega328p'
p85
sS'f_cpu'
p86
S'16000000L'
p87
sS'variant'
p88
S'standard'
p89
ssS'bootloader'
p90
(dp91
S'extended_fuses'
p92
S'0x05'
p93
sS'high_fuses'
p94
S'0xde'
p95
sS'low_fuses'
p96
S'0xff'
p97
sS'lock_bits'
p98
S'0x0F'
p99
sS'file'
p100
S'optiboot_atmega328.hex'
p101
sS'path'
p102
S'optiboot'
p103
sS'unlock_bits'
p104
S'0x3F'
p105
ssS'upload'
p106
(dp107
S'speed'
p108
S'115200'
p109
sS'maximum_size'
p110
S'32256'
p111
sS'protocol'
p112
S'arduino'
p113
ssS'name'
p114
S'Arduino Uno'
p115
sS'_coredir'
p116
S'/usr/share/arduino/hardware/arduino'
p117
saa(lp118
S'atmega328'
p119
a(dp120
S'build'
p121
(dp122
S'core'
p123
S'arduino'
p124
sS'mcu'
p125
S'atmega328p'
p126
sS'f_cpu'
p127
S'16000000L'
p128
sS'variant'
p129
S'standard'
p130
ssS'bootloader'
p131
(dp132
S'extended_fuses'
p133
S'0x05'
p134
sS'high_fuses'
p135
S'0xDA'
p136
sS'low_fuses'
p137
S'0xFF'
p138
sS'lock_bits'
p139
S'0x0F'
p140
sS'file'
p141
S'ATmegaBOOT_168_atmega328.hex'
p142
sS'path'
p143
S'atmega'
p144
sS'unlock_bits'
p145
S'0x3F'
p146
ssS'upload'
p147
(dp148
S'speed'
p149
S'57600'
p150
sS'maximum_size'
p151
S'30720'
p152
sS'protocol'
p153
S'arduino'
p154
ssS'name'
p155
S'Arduino Duemilanove w/ ATmega328'
p156
sg116
S'/usr/share/arduino/hardware/arduino'
p157
saa(lp158
S'diecimila'
p159
a(dp160
S'build'
p161
(dp162
S'core'
p163
S'arduino'
p164
sS'mcu'
p165
S'atmega168'
p166
sS'f_cpu'
p167
S'16000000L'
p168
sS'variant'
p169
S'standard'
p170
ssS'bootloader'
p171
(dp172
S'extended_fuses'
p173
S'0x00'
p174
sS'high_fuses'
p175
S'0xdd'
p176
sS'low_fuses'
p177
S'0xff'
p178
sS'lock_bits'
p179
S'0x0F'
p180
sS'file'
p181
S'ATmegaBOOT_168_diecimila.hex'
p182
sS'path'
p183
S'atmega'
p184
sS'unlock_bits'
p185
S'0x3F'
p186
ssS'upload'
p187
(dp188
S'speed'
p189
S'19200'
p190
sS'maximum_size'
p191
S'14336'
p192
sS'protocol'
p193
S'arduino'
p194
ssS'name'
p195
S'Arduino Diecimila or Duemilanove w/ ATmega168'
p196
sg116
S'/usr/share/arduino/hardware/arduino'
p197
saa(lp198
S'nano328'
p199
a(dp200
S'build'
p201
(dp202
S'core'
p203
S'arduino'
p204
sS'mcu'
p205
S'atmega328p'
p206
sS'f_cpu'
p207
S'16000000L'
p208
sS'variant'
p209
S'eightanaloginputs'
p210
ssS'bootloader'
p211
(dp212
S'extended_fuses'
p213
S'0x05'
p214
sS'high_fuses'
p215
S'0xDA'
p216
sS'low_fuses'
p217
S'0xFF'
p218
sS'lock_bits'
p219
S'0x0F'
p220
sS'file'
p221
S'ATmegaBOOT_168_atmega328.hex'
p222
sS'path'
p223
S'atmega'
p224
sS'unlock_bits'
p225
S'0x3F'
p226
ssS'upload'
p227
(dp228
S'speed'
p229
S'57600'
p230
sS'maximum_size'
p231
S'30720'
p232
sS'protocol'
p233
S'arduino'
p234
ssS'name'
p235
S'Arduino Nano w/ ATmega328'
p236
sg116
S'/usr/share/arduino/hardware/arduino'
p237
saa(lp238
S'nano'
p239
a(dp240
S'build'
p241
(dp242
S'core'
p243
S'arduino'
p244
sS'mcu'
p245
S'atmega168'
p246
sS'f_cpu'
p247
S'16000000L'
p248
sS'variant'
p249
S'eightanaloginputs'
p250
ssS'bootloader'
p251
(dp252
S'extended_fuses'
p253
S'0x00'
p254
sS'high_fuses'
p255
S'0xdd'
p256
sS'low_fuses'
p257
S'0xff'
p258
sS'lock_bits'
p259
S'0x0F'
p260
sS'file'
p261
S'ATmegaBOOT_168_diecimila.hex'
p262
sS'path'
p263
S'atmega'
p264
sS'unlock_bits'
p265
S'0x3F'
p266
ssS'upload'
p267
(dp268
S'speed'
p269
S'19200'
p270
sS'maximum_size'
p271
S'14336'
p272
sS'protocol'
p273
S'arduino'
p274
ssS'name'
p275
S'Arduino Nano w/ ATmega168'
p276
sg116
S'/usr/share/arduino/hardware/arduino'
p277
saa(lp278
S'mega2560'
p279
a(dp280
S'build'
p281
(dp282
S'core'
p283
S'arduino'
p284
sS'mcu'
p285
S'atmega2560'
p286
sS'f_cpu'
p287
S'16000000L'
p288
sS'variant'
p289
S'mega'
p290
ssS'bootloader'
p291
(dp292
S'extended_fuses'
p293
S'0xFD'
p294
sS'high_fuses'
p295
S'0xD8'
p296
sS'low_fuses'
p297
S'0xFF'
p298
sS'lock_bits'
p299
S'0x0F'
p300
sS'file'
p301
S'stk500boot_v2_mega2560.hex'
p302
sS'path'
p303
S'stk500v2'
p304
sS'unlock_bits'
p305
S'0x3F'
p306
ssS'upload'
p307
(dp308
S'speed'
p309
S'115200'
p310
sS'maximum_size'
p311
S'258048'
p312
sS'protocol'
p313
S'wiring'
p314
ssS'name'
p315
S'Arduino Mega 2560 or Mega ADK'
p316
sg116
S'/usr/share/arduino/hardware/arduino'
p317
saa(lp318
S'mega'
p319
a(dp320
S'build'
p321
(dp322
S'core'
p323
S'arduino'
p324
sS'mcu'
p325
S'atmega1280'
p326
sS'f_cpu'
p327
S'16000000L'
p328
sS'variant'
p329
S'mega'
p330
ssS'bootloader'
p331
(dp332
S'extended_fuses'
p333
S'0xF5'
p334
sS'high_fuses'
p335
S'0xDA'
p336
sS'low_fuses'
p337
S'0xFF'
p338
sS'lock_bits'
p339
S'0x0F'
p340
sS'file'
p341
S'ATmegaBOOT_168_atmega1280.hex'
p342
sS'path'
p343
S'atmega'
p344
sS'unlock_bits'
p345
S'0x3F'
p346
ssS'upload'
p347
(dp348
S'speed'
p349
S'57600'
p350
sS'maximum_size'
p351
S'126976'
p352
sS'protocol'
p353
S'arduino'
p354
ssS'name'
p355
S'Arduino Mega (ATmega1280)'
p356
sg116
S'/usr/share/arduino/hardware/arduino'
p357
saa(lp358
S'leonardo'
p359
a(dp360
S'build'
p361
(dp362
S'core'
p363
S'arduino'
p364
sS'f_cpu'
p365
S'16000000L'
p366
sS'vid'
p367
S'0x2341'
p368
sS'pid'
p369
S'0x8036'
p370
sS'variant'
p371
S'leonardo'
p372
sS'mcu'
p373
S'atmega32u4'
p374
ssS'bootloader'
p375
(dp376
S'extended_fuses'
p377
S'0xcb'
p378
sS'high_fuses'
p379
S'0xd8'
p380
sS'low_fuses'
p381
S'0xff'
p382
sS'lock_bits'
p383
S'0x2F'
p384
sS'file'
p385
S'Caterina-Leonardo.hex'
p386
sS'path'
p387
S'caterina'
p388
sS'unlock_bits'
p389
S'0x3F'
p390
ssS'upload'
p391
(dp392
S'speed'
p393
S'57600'
p394
sS'maximum_size'
p395
S'28672'
p396
sS'protocol'
p397
S'avr109'
p398
sS'disable_flushing'
p399
S'true'
p400
ssS'name'
p401
S'Arduino Leonardo'
p402
sg116
S'/usr/share/arduino/hardware/arduino'
p403
saa(lp404
S'esplora'
p405
a(dp406
S'build'
p407
(dp408
S'core'
p409
S'arduino'
p410
sS'f_cpu'
p411
S'16000000L'
p412
sS'vid'
p413
S'0x2341'
p414
sS'pid'
p415
S'0x803C'
p416
sS'variant'
p417
S'leonardo'
p418
sS'mcu'
p419
S'atmega32u4'
p420
ssS'bootloader'
p421
(dp422
S'extended_fuses'
p423
S'0xcb'
p424
sS'high_fuses'
p425
S'0xd8'
p426
sS'low_fuses'
p427
S'0xff'
p428
sS'lock_bits'
p429
S'0x2F'
p430
sS'file'
p431
S'Caterina-Esplora.hex'
p432
sS'path'
p433
S'caterina'
p434
sS'unlock_bits'
p435
S'0x3F'
p436
ssS'upload'
p437
(dp438
S'speed'
p439
S'57600'
p440
sS'maximum_size'
p441
S'28672'
p442
sS'protocol'
p443
S'avr109'
p444
sS'disable_flushing'
p445
S'true'
p446
ssS'name'
p447
S'Arduino Esplora'
p448
sg116
S'/usr/share/arduino/hardware/arduino'
p449
saa(lp450
S'micro'
p451
a(dp452
S'build'
p453
(dp454
S'core'
p455
S'arduino'
p456
sS'f_cpu'
p457
S'16000000L'
p458
sS'vid'
p459
S'0x2341'
p460
sS'pid'
p461
S'0x8037'
p462
sS'variant'
p463
S'micro'
p464
sS'mcu'
p465
S'atmega32u4'
p466
ssS'bootloader'
p467
(dp468
S'extended_fuses'
p469
S'0xcb'
p470
sS'high_fuses'
p471
S'0xd8'
p472
sS'low_fuses'
p473
S'0xff'
p474
sS'lock_bits'
p475
S'0x2F'
p476
sS'file'
p477
S'Caterina-Micro.hex'
p478
sS'path'
p479
S'caterina'
p480
sS'unlock_bits'
p481
S'0x3F'
p482
ssS'upload'
p483
(dp484
S'speed'
p485
S'57600'
p486
sS'maximum_size'
p487
S'28672'
p488
sS'protocol'
p489
S'avr109'
p490
sS'disable_flushing'
p491
S'true'
p492
ssS'name'
p493
S'Arduino Micro'
p494
sg116
S'/usr/share/arduino/hardware/arduino'
p495
saa(lp496
S'mini328'
p497
a(dp498
S'build'
p499
(dp500
S'core'
p501
S'arduino'
p502
sS'mcu'
p503
S'atmega328p'
p504
sS'f_cpu'
p505
S'16000000L'
p506
sS'variant'
p507
S'eightanaloginputs'
p508
ssS'bootloader'
p509
(dp510
S'extended_fuses'
p511
S'0x05'
p512
sS'high_fuses'
p513
S'0xd8'
p514
sS'low_fuses'
p515
S'0xff'
p516
sS'lock_bits'
p517
S'0x0F'
p518
sS'file'
p519
S'optiboot_atmega328-Mini.hex'
p520
sS'path'
p521
S'optiboot'
p522
sS'unlock_bits'
p523
S'0x3F'
p524
ssS'upload'
p525
(dp526
S'speed'
p527
S'115200'
p528
sS'maximum_size'
p529
S'28672'
p530
sS'protocol'
p531
S'arduino'
p532
ssS'name'
p533
S'Arduino Mini w/ ATmega328'
p534
sg116
S'/usr/share/arduino/hardware/arduino'
p535
saa(lp536
S'mini'
p537
a(dp538
S'build'
p539
(dp540
S'core'
p541
S'arduino'
p542
sS'mcu'
p543
S'atmega168'
p544
sS'f_cpu'
p545
S'16000000L'
p546
sS'variant'
p547
S'eightanaloginputs'
p548
ssS'bootloader'
p549
(dp550
S'extended_fuses'
p551
S'0x00'
p552
sS'high_fuses'
p553
S'0xdd'
p554
sS'low_fuses'
p555
S'0xff'
p556
sS'lock_bits'
p557
S'0x0F'
p558
sS'file'
p559
S'ATmegaBOOT_168_ng.hex'
p560
sS'path'
p561
S'atmega'
p562
sS'unlock_bits'
p563
S'0x3F'
p564
ssS'upload'
p565
(dp566
S'speed'
p567
S'19200'
p568
sS'maximum_size'
p569
S'14336'
p570
sS'protocol'
p571
S'arduino'
p572
ssS'name'
p573
S'Arduino Mini w/ ATmega168'
p574
sg116
S'/usr/share/arduino/hardware/arduino'
p575
saa(lp576
S'ethernet'
p577
a(dp578
S'build'
p579
(dp580
S'f_cpu'
p581
S'16000000L'
p582
sS'mcu'
p583
S'atmega328p'
p584
sS'variant'
p585
S'standard'
p586
sS'core'
p587
S'arduino'
p588
ssS'bootloader'
p589
(dp590
S'extended_fuses'
p591
S'0x05'
p592
sS'high_fuses'
p593
S'0xde'
p594
sS'low_fuses'
p595
S'0xff'
p596
sS'lock_bits'
p597
S'0x0F'
p598
sS'file'
p599
S'optiboot_atmega328.hex'
p600
sS'path'
p601
S'optiboot'
p602
sS'unlock_bits'
p603
S'0x3F'
p604
ssS'upload'
p605
(dp606
S'speed'
p607
S'115200'
p608
sS'maximum_size'
p609
S'32256'
p610
sS'protocol'
p611
S'arduino'
p612
ssS'name'
p613
S'Arduino Ethernet'
p614
sg116
S'/usr/share/arduino/hardware/arduino'
p615
saa(lp616
S'fio'
p617
a(dp618
S'build'
p619
(dp620
S'core'
p621
S'arduino'
p622
sS'mcu'
p623
S'atmega328p'
p624
sS'f_cpu'
p625
S'8000000L'
p626
sS'variant'
p627
S'eightanaloginputs'
p628
ssS'bootloader'
p629
(dp630
S'extended_fuses'
p631
S'0x05'
p632
sS'high_fuses'
p633
S'0xDA'
p634
sS'low_fuses'
p635
S'0xFF'
p636
sS'lock_bits'
p637
S'0x0F'
p638
sS'file'
p639
S'ATmegaBOOT_168_atmega328_pro_8MHz.hex'
p640
sS'path'
p641
S'arduino:atmega'
p642
sS'unlock_bits'
p643
S'0x3F'
p644
ssS'upload'
p645
(dp646
S'speed'
p647
S'57600'
p648
sS'maximum_size'
p649
S'30720'
p650
sS'protocol'
p651
S'arduino'
p652
ssS'name'
p653
S'Arduino Fio'
p654
sg116
S'/usr/share/arduino/hardware/arduino'
p655
saa(lp656
S'bt328'
p657
a(dp658
S'build'
p659
(dp660
S'core'
p661
S'arduino'
p662
sS'mcu'
p663
S'atmega328p'
p664
sS'f_cpu'
p665
S'16000000L'
p666
sS'variant'
p667
S'eightanaloginputs'
p668
ssS'bootloader'
p669
(dp670
S'extended_fuses'
p671
S'0x05'
p672
sS'high_fuses'
p673
S'0xd8'
p674
sS'low_fuses'
p675
S'0xff'
p676
sS'lock_bits'
p677
S'0x0F'
p678
sS'file'
p679
S'ATmegaBOOT_168_atmega328_bt.hex'
p680
sS'path'
p681
S'bt'
p682
sS'unlock_bits'
p683
S'0x3F'
p684
ssS'upload'
p685
(dp686
S'speed'
p687
S'19200'
p688
sS'maximum_size'
p689
S'28672'
p690
sS'protocol'
p691
S'arduino'
p692
sS'disable_flushing'
p693
S'true'
p694
ssS'name'
p695
S'Arduino BT w/ ATmega328'
p696
sg116
S'/usr/share/arduino/hardware/arduino'
p697
saa(lp698
S'bt'
p699
a(dp700
S'build'
p701
(dp702
S'core'
p703
S'arduino'
p704
sS'mcu'
p705
S'atmega168'
p706
sS'f_cpu'
p707
S'16000000L'
p708
sS'variant'
p709
S'eightanaloginputs'
p710
ssS'bootloader'
p711
(dp712
S'extended_fuses'
p713
S'0x00'
p714
sS'high_fuses'
p715
S'0xdd'
p716
sS'low_fuses'
p717
S'0xff'
p718
sS'lock_bits'
p719
S'0x0F'
p720
sS'file'
p721
S'ATmegaBOOT_168.hex'
p722
sS'path'
p723
S'bt'
p724
sS'unlock_bits'
p725
S'0x3F'
p726
ssS'upload'
p727
(dp728
S'speed'
p729
S'19200'
p730
sS'maximum_size'
p731
S'14336'
p732
sS'protocol'
p733
S'arduino'
p734
sS'disable_flushing'
p735
S'true'
p736
ssS'name'
p737
S'Arduino BT w/ ATmega168'
p738
sg116
S'/usr/share/arduino/hardware/arduino'
p739
saa(lp740
S'LilyPadUSB'
p741
a(dp742
S'build'
p743
(dp744
S'core'
p745
S'arduino'
p746
sS'f_cpu'
p747
S'8000000L'
p748
sS'vid'
p749
S'0x1B4F'
p750
sS'pid'
p751
S'0x9208'
p752
sS'variant'
p753
S'leonardo'
p754
sS'mcu'
p755
S'atmega32u4'
p756
ssS'bootloader'
p757
(dp758
S'extended_fuses'
p759
S'0xce'
p760
sS'high_fuses'
p761
S'0xd8'
p762
sS'low_fuses'
p763
S'0xff'
p764
sS'lock_bits'
p765
S'0x2F'
p766
sS'file'
p767
S'Caterina-LilyPadUSB.hex'
p768
sS'path'
p769
S'caterina-LilyPadUSB'
p770
sS'unlock_bits'
p771
S'0x3F'
p772
ssS'upload'
p773
(dp774
S'speed'
p775
S'57600'
p776
sS'maximum_size'
p777
S'28672'
p778
sS'protocol'
p779
S'avr109'
p780
sS'disable_flushing'
p781
S'true'
p782
ssS'name'
p783
S'LilyPad Arduino USB'
p784
sg116
S'/usr/share/arduino/hardware/arduino'
p785
saa(lp786
S'lilypad328'
p787
a(dp788
S'build'
p789
(dp790
S'core'
p791
S'arduino'
p792
sS'mcu'
p793
S'atmega328p'
p794
sS'f_cpu'
p795
S'8000000L'
p796
sS'variant'
p797
S'standard'
p798
ssS'bootloader'
p799
(dp800
S'extended_fuses'
p801
S'0x05'
p802
sS'high_fuses'
p803
S'0xDA'
p804
sS'low_fuses'
p805
S'0xFF'
p806
sS'lock_bits'
p807
S'0x0F'
p808
sS'file'
p809
S'ATmegaBOOT_168_atmega328_pro_8MHz.hex'
p810
sS'path'
p811
S'atmega'
p812
sS'unlock_bits'
p813
S'0x3F'
p814
ssS'upload'
p815
(dp816
S'speed'
p817
S'57600'
p818
sS'maximum_size'
p819
S'30720'
p820
sS'protocol'
p821
S'arduino'
p822
ssS'name'
p823
S'LilyPad Arduino w/ ATmega328'
p824
sg116
S'/usr/share/arduino/hardware/arduino'
p825
saa(lp826
S'lilypad'
p827
a(dp828
S'build'
p829
(dp830
S'core'
p831
S'arduino'
p832
sS'mcu'
p833
S'atmega168'
p834
sS'f_cpu'
p835
S'8000000L'
p836
sS'variant'
p837
S'standard'
p838
ssS'bootloader'
p839
(dp840
S'extended_fuses'
p841
S'0x00'
p842
sS'high_fuses'
p843
S'0xdd'
p844
sS'low_fuses'
p845
S'0xe2'
p846
sS'lock_bits'
p847
S'0x0F'
p848
sS'file'
p849
S'LilyPadBOOT_168.hex'
p850
sS'path'
p851
S'lilypad'
p852
sS'unlock_bits'
p853
S'0x3F'
p854
ssS'upload'
p855
(dp856
S'speed'
p857
S'19200'
p858
sS'maximum_size'
p859
S'14336'
p860
sS'protocol'
p861
S'arduino'
p862
ssS'name'
p863
S'LilyPad Arduino w/ ATmega168'
p864
sg116
S'/usr/share/arduino/hardware/arduino'
p865
saa(lp866
S'pro5v328'
p867
a(dp868
S'build'
p869
(dp870
S'core'
p871
S'arduino'
p872
sS'mcu'
p873
S'atmega328p'
p874
sS'f_cpu'
p875
S'16000000L'
p876
sS'variant'
p877
S'standard'
p878
ssS'bootloader'
p879
(dp880
S'extended_fuses'
p881
S'0x05'
p882
sS'high_fuses'
p883
S'0xDA'
p884
sS'low_fuses'
p885
S'0xFF'
p886
sS'lock_bits'
p887
S'0x0F'
p888
sS'file'
p889
S'ATmegaBOOT_168_atmega328.hex'
p890
sS'path'
p891
S'atmega'
p892
sS'unlock_bits'
p893
S'0x3F'
p894
ssS'upload'
p895
(dp896
S'speed'
p897
S'57600'
p898
sS'maximum_size'
p899
S'30720'
p900
sS'protocol'
p901
S'arduino'
p902
ssS'name'
p903
S'Arduino Pro or Pro Mini (5V, 16 MHz) w/ ATmega328'
p904
sg116
S'/usr/share/arduino/hardware/arduino'
p905
saa(lp906
S'pro5v'
p907
a(dp908
S'build'
p909
(dp910
S'core'
p911
S'arduino'
p912
sS'mcu'
p913
S'atmega168'
p914
sS'f_cpu'
p915
S'16000000L'
p916
sS'variant'
p917
S'standard'
p918
ssS'bootloader'
p919
(dp920
S'extended_fuses'
p921
S'0x00'
p922
sS'high_fuses'
p923
S'0xdd'
p924
sS'low_fuses'
p925
S'0xff'
p926
sS'lock_bits'
p927
S'0x0F'
p928
sS'file'
p929
S'ATmegaBOOT_168_diecimila.hex'
p930
sS'path'
p931
S'atmega'
p932
sS'unlock_bits'
p933
S'0x3F'
p934
ssS'upload'
p935
(dp936
S'speed'
p937
S'19200'
p938
sS'maximum_size'
p939
S'14336'
p940
sS'protocol'
p941
S'arduino'
p942
ssS'name'
p943
S'Arduino Pro or Pro Mini (5V, 16 MHz) w/ ATmega168'
p944
sg116
S'/usr/share/arduino/hardware/arduino'
p945
saa(lp946
S'pro328'
p947
a(dp948
S'build'
p949
(dp950
S'core'
p951
S'arduino'
p952
sS'mcu'
p953
S'atmega328p'
p954
sS'f_cpu'
p955
S'8000000L'
p956
sS'variant'
p957
S'standard'
p958
ssS'bootloader'
p959
(dp960
S'extended_fuses'
p961
S'0x05'
p962
sS'high_fuses'
p963
S'0xDA'
p964
sS'low_fuses'
p965
S'0xFF'
p966
sS'lock_bits'
p967
S'0x0F'
p968
sS'file'
p969
S'ATmegaBOOT_168_atmega328_pro_8MHz.hex'
p970
sS'path'
p971
S'atmega'
p972
sS'unlock_bits'
p973
S'0x3F'
p974
ssS'upload'
p975
(dp976
S'speed'
p977
S'57600'
p978
sS'maximum_size'
p979
S'30720'
p980
sS'protocol'
p981
S'arduino'
p982
ssS'name'
p983
S'Arduino Pro or Pro Mini (3.3V, 8 MHz) w/ ATmega328'
p984
sg116
S'/usr/share/arduino/hardware/arduino'
p985
saa(lp986
S'pro'
p987
a(dp988
S'build'
p989
(dp990
S'core'
p991
S'arduino'
p992
sS'mcu'
p993
S'atmega168'
p994
sS'f_cpu'
p995
S'8000000L'
p996
sS'variant'
p997
S'standard'
p998
ssS'bootloader'
p999
(dp1000
S'extended_fuses'
p1001
S'0x00'
p1002
sS'high_fuses'
p1003
S'0xdd'
p1004
sS'low_fuses'
p1005
S'0xc6'
p1006
sS'lock_bits'
p1007
S'0x0F'
p1008
sS'file'
p1009
S'ATmegaBOOT_168_pro_8MHz.hex'
p1010
sS'path'
p1011
S'atmega'
p1012
sS'unlock_bits'
p1013
S'0x3F'
p1014
ssS'upload'
p1015
(dp1016
S'speed'
p1017
S'19200'
p1018
sS'maximum_size'
p1019
S'14336'
p1020
sS'protocol'
p1021
S'arduino'
p1022
ssS'name'
p1023
S'Arduino Pro or Pro Mini (3.3V, 8 MHz) w/ ATmega168'
p1024
sg116
S'/usr/share/arduino/hardware/arduino'
p1025
saa(lp1026
S'atmega168'
p1027
a(dp1028
S'build'
p1029
(dp1030
S'core'
p1031
S'arduino'
p1032
sS'mcu'
p1033
S'atmega168'
p1034
sS'f_cpu'
p1035
S'16000000L'
p1036
sS'variant'
p1037
S'standard'
p1038
ssS'bootloader'
p1039
(dp1040
S'extended_fuses'
p1041
S'0x00'
p1042
sS'high_fuses'
p1043
S'0xdd'
p1044
sS'low_fuses'
p1045
S'0xff'
p1046
sS'lock_bits'
p1047
S'0x0F'
p1048
sS'file'
p1049
S'ATmegaBOOT_168_ng.hex'
p1050
sS'path'
p1051
S'atmega'
p1052
sS'unlock_bits'
p1053
S'0x3F'
p1054
ssS'upload'
p1055
(dp1056
S'speed'
p1057
S'19200'
p1058
sS'maximum_size'
p1059
S'14336'
p1060
sS'protocol'
p1061
S'arduino'
p1062
ssS'name'
p1063
S'Arduino NG or older w/ ATmega168'
p1064
sg116
S'/usr/share/arduino/hardware/arduino'
p1065
saa(lp1066
S'atmega8'
p1067
a(dp1068
S'build'
p1069
(dp1070
S'core'
p1071
S'arduino'
p1072
sS'mcu'
p1073
S'atmega8'
p1074
sS'f_cpu'
p1075
S'16000000L'
p1076
sS'variant'
p1077
S'standard'
p1078
ssS'bootloader'
p1079
(dp1080
S'high_fuses'
p1081
S'0xca'
p1082
sS'low_fuses'
p1083
S'0xdf'
p1084
sS'lock_bits'
p1085
S'0x0F'
p1086
sS'file'
p1087
S'ATmegaBOOT-prod-firmware-2009-11-07.hex'
p1088
sS'path'
p1089
S'atmega8'
p1090
sS'unlock_bits'
p1091
S'0x3F'
p1092
ssS'upload'
p1093
(dp1094
S'speed'
p1095
S'19200'
p1096
sS'maximum_size'
p1097
S'7168'
p1098
sS'protocol'
p1099
S'arduino'
p1100
ssS'name'
p1101
S'Arduino NG or older w/ ATmega8'
p1102
sg116
S'/usr/share/arduino/hardware/arduino'
p1103
saa(lp1104
S'robotControl'
p1105
a(dp1106
S'build'
p1107
(dp1108
S'core'
p1109
S'robot'
p1110
sS'f_cpu'
p1111
S'16000000L'
p1112
sS'vid'
p1113
S'0x2341'
p1114
sS'pid'
p1115
S'0x8038'
p1116
sS'variant'
p1117
S'robot_control'
p1118
sS'mcu'
p1119
S'atmega32u4'
p1120
ssS'bootloader'
p1121
(dp1122
S'extended_fuses'
p1123
S'0xcb'
p1124
sS'high_fuses'
p1125
S'0xd8'
p1126
sS'low_fuses'
p1127
S'0xff'
p1128
sS'lock_bits'
p1129
S'0x2F'
p1130
sS'file'
p1131
S'Caterina-Robot-Control.hex'
p1132
sS'path'
p1133
S'caterina-Arduino_Robot'
p1134
sS'unlock_bits'
p1135
S'0x3F'
p1136
ssS'upload'
p1137
(dp1138
S'speed'
p1139
S'57600'
p1140
sS'maximum_size'
p1141
S'28672'
p1142
sS'protocol'
p1143
S'avr109'
p1144
sS'disable_flushing'
p1145
S'true'
p1146
ssS'name'
p1147
S'Arduino Robot Control'
p1148
sg116
S'/usr/share/arduino/hardware/arduino'
p1149
saa(lp1150
S'robotMotor'
p1151
a(dp1152
S'build'
p1153
(dp1154
S'core'
p1155
S'robot'
p1156
sS'f_cpu'
p1157
S'16000000L'
p1158
sS'vid'
p1159
S'0x2341'
p1160
sS'pid'
p1161
S'0x8039'
p1162
sS'variant'
p1163
S'robot_motor'
p1164
sS'mcu'
p1165
S'atmega32u4'
p1166
ssS'bootloader'
p1167
(dp1168
S'extended_fuses'
p1169
S'0xcb'
p1170
sS'high_fuses'
p1171
S'0xd8'
p1172
sS'low_fuses'
p1173
S'0xff'
p1174
sS'lock_bits'
p1175
S'0x2F'
p1176
sS'file'
p1177
S'Caterina-Robot-Motor.hex'
p1178
sS'path'
p1179
S'caterina-Arduino_Robot'
p1180
sS'unlock_bits'
p1181
S'0x3F'
p1182
ssS'upload'
p1183
(dp1184
S'speed'
p1185
S'57600'
p1186
sS'maximum_size'
p1187
S'28672'
p1188
sS'protocol'
p1189
S'avr109'
p1190
sS'disable_flushing'
p1191
S'true'
p1192
ssS'name'
p1193
S'Arduino Robot Motor'
p1194
sg116
S'/usr/share/arduino/hardware/arduino'
p1195
saa(lp1196
S'sleepypi'
p1197
a(dp1198
S'build'
p1199
(dp1200
S'core'
p1201
S'arduino'
p1202
sS'mcu'
p1203
S'atmega328p'
p1204
sS'f_cpu'
p1205
S'8000000L'
p1206
sS'variant'
p1207
S'standard'
p1208
ssS'bootloader'
p1209
(dp1210
S'extended_fuses'
p1211
S'0x05'
p1212
sS'high_fuses'
p1213
S'0xDA'
p1214
sS'low_fuses'
p1215
S'0xFF'
p1216
sS'lock_bits'
p1217
S'0x0F'
p1218
sS'file'
p1219
S'ATmegaBOOT_168_atmega328_pro_8MHz.hex'
p1220
sS'path'
p1221
S'arduino:atmega'
p1222
sS'unlock_bits'
p1223
S'0x3F'
p1224
ssS'upload'
p1225
(dp1226
S'speed'
p1227
S'57600'
p1228
sS'maximum_size'
p1229
S'30720'
p1230
sS'protocol'
p1231
S'arduino'
p1232
ssS'name'
p1233
S'Sleepy Pi'
p1234
sg116
S'/usr/share/arduino/hardware/arduino'
p1235
saatp1236
Rp1237
(dp1238
S'default'
p1239
S'uno'
p1240
sbtp1241
a(S'used_libs'
p1242
(lp1243
S'/usr/share/arduino/libraries/SleepyPi2'
p1244
aS'/usr/share/arduino/libraries/Low-Power'
p1245
aS'/usr/share/arduino/libraries/Time'
p1246
aS'/usr/share/arduino/libraries/PCF8523'
p1247
aS'/usr/share/arduino/libraries/Wire'
p1248
aS'/usr/share/arduino/hardware/arduino/cores/arduino'
p1249
atp1250
a(S'make'
p1251
S'/usr/share/arduino/hardware/tools/avr/bin/make'
p1252
tp1253
a(S'build_dir'
p1254
S'.build/sleepypi'
p1255
tp1256
a(S'cc'
p1257
S'/usr/share/arduino/hardware/tools/avr/bin/avr-gcc'
p1258
tp1259
a(S'cflags'
p1260
g2
(g3
g4
(lp1261
tp1262
Rp1263
tp1264
a(S'cxxflags'
p1265
g2
(g3
g4
(lp1266
S'-fno-exceptions'
p1267
atp1268
Rp1269
tp1270
a(S'arduino_variants_dir'
p1271
S'/usr/share/arduino/hardware/arduino/variants'
p1272
tp1273
a(S'stty'
p1274
S'/bin/stty'
p1275
tp1276
a(S'version.txt'
p1277
S'/usr/share/arduino/lib/version.txt'
p1278
tp1279
a(S'arduino_core_dir'
p1280
g1249
tp1281
a(S'boards.txt'
p1282
(lp1283
S'/usr/share/arduino/hardware/arduino/boards.txt'
p1284
atp1285
a(S'avrdude.conf'
p1286
S'/usr/share/arduino/hardware/tools/avrdude.conf'
p1287
tp1288
a(S'deps'
p1289
g2
(g3
g4
(lp1290
S'.build/sleepypi/src/dependencies.d'
p1291
aS'.build/sleepypi/arduino/dependencies.d'
p1292
aS'.build/sleepypi/Low-Power/dependencies.d'
p1293
aS'.build/sleepypi/Wire/dependencies.d'
p1294
aS'.build/sleepypi/SleepyPi2/dependencies.d'
p1295
aS'.build/sleepypi/Time/dependencies.d'
p1296
aS'.build/sleepypi/PCF8523/dependencies.d'
p1297
atp1298
Rp1299
tp1300
a.